; Function Attrs: null_pointer_is_valid sspstrong uwtable
define internal i32 @efs_dissect_EfsRpcQueryUsersOnFile_response(ptr noundef %0, i32 noundef %1, ptr noundef %2, ptr noundef %3, ptr noundef initializes((72, 80)) %4, ptr noundef %5) #0 {
  %7 = alloca i32, align 4
  call void @llvm.lifetime.start.p0(i64 4, ptr nonnull %7) #4
  %8 = getelementptr inbounds nuw i8, ptr %4, i64 72
  store ptr @.str.69, ptr %8, align 8
  %9 = load i32, ptr @hf_efs_EfsRpcQueryUsersOnFile_pUsers, align 4
  %10 = tail call i32 @dissect_ndr_toplevel_pointer(ptr noundef %0, i32 noundef %1, ptr noundef %2, ptr noundef %3, ptr noundef %4, ptr noundef %5, ptr noundef nonnull @efs_dissect_element_EfsRpcQueryUsersOnFile_pUsers_, i32 noundef 1, ptr noundef nonnull @.str.81, i32 noundef %9)
  %11 = tail call i32 @dissect_deferred_pointers(ptr noundef %2, ptr noundef %0, i32 noundef %10, ptr noundef %4, ptr noundef %5)
  %12 = load i32, ptr @hf_efs_werror, align 4
  %13 = call i32 @dissect_ndr_uint32(ptr noundef %0, i32 noundef %11, ptr noundef %2, ptr noundef %3, ptr noundef %4, ptr noundef %5, i32 noundef %12, ptr noundef nonnull %7)
  %14 = load i32, ptr %7, align 4
  %.not = icmp eq i32 %14, 0
  br i1 %.not, label %19, label %15

15:                                               ; preds = %6
  %16 = getelementptr inbounds nuw i8, ptr %2, i64 8
  %17 = load ptr, ptr %16, align 8
  %18 = call ptr @val_to_str_ext(i32 noundef %14, ptr noundef nonnull @WERR_errors_ext, ptr noundef nonnull @.str.79)
  call void (ptr, i32, ptr, ...) @col_append_fstr(ptr noundef %17, i32 noundef 25, ptr noundef nonnull @.str.78, ptr noundef %18)
  br label %19

19:                                               ; preds = %15, %6
  call void @llvm.lifetime.end.p0(i64 4, ptr nonnull %7) #4
  ret i32 %13
}